; Function Attrs: mustprogress uwtable
define dso_local void @_ZN9SResource8preWriteEPj(ptr noundef nonnull align 8 dereferenceable(56) %0, ptr noundef %1) local_unnamed_addr #7 align 2 {
  %3 = getelementptr inbounds nuw i8, ptr %0, i64 12
  %4 = load i32, ptr %3, align 4, !tbaa !20
  %.not = icmp eq i32 %4, -1
  br i1 %.not, label %5, label %14

5:                                                ; preds = %2
  %6 = load ptr, ptr %0, align 8, !tbaa !9
  %7 = getelementptr inbounds nuw i8, ptr %6, i64 32
  %8 = load ptr, ptr %7, align 8
  tail call void %8(ptr noundef nonnull align 8 dereferenceable(56) %0, ptr noundef %1)
  %9 = load i32, ptr %1, align 4, !tbaa !7
  %10 = and i32 %9, 3
  %.not.i = icmp eq i32 %10, 0
  %11 = sub nuw nsw i32 4, %10
  %12 = select i1 %.not.i, i32 0, i32 %11
  %13 = add i32 %12, %9
  store i32 %13, ptr %1, align 4, !tbaa !7
  br label %14

14:                                               ; preds = %2, %5
  ret void
}